; Function Attrs: nofree nounwind uwtable
define noalias ptr @av_malloc(i64 noundef %0) local_unnamed_addr #1 {
  %2 = alloca ptr, align 8
  %3 = alloca ptr, align 8
  call void @llvm.lifetime.start.p0(i64 8, ptr nonnull %3) #21
  store ptr null, ptr %3, align 8, !tbaa !4
  %4 = load atomic i64, ptr @max_alloc_size monotonic, align 8
  %5 = icmp ugt i64 %0, %4
  br i1 %5, label %.thread, label %6

6:                                                ; preds = %1
  %.not8 = icmp eq i64 %0, 0
  br i1 %.not8, label %9, label %7

7:                                                ; preds = %6
  %8 = call i32 @posix_memalign(ptr noundef nonnull %3, i64 noundef 16, i64 noundef %0) #21
  %.not = icmp eq i32 %8, 0
  %.pre11 = load ptr, ptr %3, align 8
  %spec.select = select i1 %.not, ptr %.pre11, ptr null
  br label %.thread

9:                                                ; preds = %6
  call void @llvm.lifetime.start.p0(i64 8, ptr nonnull %2) #21
  store ptr null, ptr %2, align 8, !tbaa !4
  %10 = load atomic i64, ptr @max_alloc_size monotonic, align 8
  %11 = icmp eq i64 %10, 0
  br i1 %11, label %av_malloc.exit, label %12

12:                                               ; preds = %9
  %13 = call i32 @posix_memalign(ptr noundef nonnull %2, i64 noundef 16, i64 noundef 1) #21
  %.not.i = icmp eq i32 %13, 0
  %.pre = load ptr, ptr %2, align 8
  %spec.select12 = select i1 %.not.i, ptr %.pre, ptr null
  br label %av_malloc.exit

av_malloc.exit:                                   ; preds = %12, %9
  %.0.i = phi ptr [ null, %9 ], [ %spec.select12, %12 ]
  call void @llvm.lifetime.end.p0(i64 8, ptr nonnull %2) #21
  br label %.thread

.thread:                                          ; preds = %7, %av_malloc.exit, %1
  %.0 = phi ptr [ null, %1 ], [ %.0.i, %av_malloc.exit ], [ %spec.select, %7 ]
  call void @llvm.lifetime.end.p0(i64 8, ptr nonnull %3) #21
  ret ptr %.0
}